; Function Attrs: cold mustprogress nofree norecurse nosync nounwind optsize willreturn memory(argmem: readwrite) uwtable
define range(i32 -1094995529, 1) i32 @ff_ffv1_common_init(ptr noundef %0, ptr noundef writeonly captures(none) %1) local_unnamed_addr #0 {
  %3 = getelementptr inbounds nuw i8, ptr %0, i64 112
  %4 = load i32, ptr %3, align 8, !tbaa !4
  %.not = icmp eq i32 %4, 0
  br i1 %.not, label %17, label %5

5:                                                ; preds = %2
  %6 = getelementptr inbounds nuw i8, ptr %0, i64 116
  %7 = load i32, ptr %6, align 4, !tbaa !27
  %.not12 = icmp eq i32 %7, 0
  br i1 %.not12, label %17, label %8

8:                                                ; preds = %5
  %9 = getelementptr inbounds nuw i8, ptr %1, i64 8
  store ptr %0, ptr %9, align 8, !tbaa !28
  %10 = getelementptr inbounds nuw i8, ptr %0, i64 64
  %11 = load i32, ptr %10, align 8, !tbaa !35
  %12 = getelementptr inbounds nuw i8, ptr %1, i64 4212
  store i32 %11, ptr %12, align 4, !tbaa !36
  %13 = getelementptr inbounds nuw i8, ptr %1, i64 4188
  store i32 %4, ptr %13, align 4, !tbaa !37
  %14 = getelementptr inbounds nuw i8, ptr %1, i64 4192
  store i32 %7, ptr %14, align 8, !tbaa !38
  %15 = getelementptr inbounds nuw i8, ptr %1, i64 25216
  store i32 1, ptr %15, align 8, !tbaa !39
  %16 = getelementptr inbounds nuw i8, ptr %1, i64 25212
  store i32 1, ptr %16, align 4, !tbaa !40
  br label %17

17:                                               ; preds = %2, %5, %8
  %.0 = phi i32 [ 0, %8 ], [ -1094995529, %5 ], [ -1094995529, %2 ]
  ret i32 %.0
}